(dp0
Vengine
p1
S'pdflatex'
p2
sVpackages
p3
c__builtin__
set
p4
((lp5
Vgeometry
p6
aVgraphicx
p7
aVinputenc
p8
aVcolor
p9
atp10
Rp11
sVfiles_with_guttermarks
p12
g4
((lp13
S'untitled.txt'
p14
atp15
Rp16
sVsynctex
p17
I01
s.